target datalayout = "e-m:e-p270:32:32-p271:32:32-p272:64:64-i64:64-i128:128-f80:128-n8:16:32:64-S128"
target triple = "x86_64-pc-linux-gnu"

%"class.std::shared_ptr.26" = type { %"class.std::__shared_ptr.27" }
%"class.std::__shared_ptr.27" = type { ptr, %"class.std::__shared_count" }
%"class.std::__shared_count" = type { ptr }
%"class.std::lock_guard" = type { ptr }
%"class.std::mutex" = type { %"class.std::__mutex_base" }
%"class.std::__mutex_base" = type { %union.pthread_mutex_t }
%union.pthread_mutex_t = type { %struct.__pthread_mutex_s }
%struct.__pthread_mutex_s = type { i32, i32, i32, i32, i32, i16, i16, %struct.__pthread_internal_list }
%struct.__pthread_internal_list = type { ptr, ptr }
%class.anon = type { i8 }
%"struct.arrow::(anonymous namespace)::SignalStopState" = type { %"class.std::enable_shared_from_this", %"class.std::mutex", %"class.std::vector", %"class.std::shared_ptr.2", %"class.std::unique_ptr", %"class.std::shared_ptr.7", %"class.std::shared_ptr.10", %"struct.std::atomic.13" }
%"class.std::enable_shared_from_this" = type { %"class.std::weak_ptr" }
%"class.std::weak_ptr" = type { %"class.std::__weak_ptr" }
%"class.std::__weak_ptr" = type { ptr, %"class.std::__weak_count" }
%"class.std::__weak_count" = type { ptr }
%"class.std::vector" = type { %"struct.std::_Vector_base" }
%"struct.std::_Vector_base" = type { %"struct.std::_Vector_base<arrow::(anonymous namespace)::SignalStopState::SavedSignalHandler, std::allocator<arrow::(anonymous namespace)::SignalStopState::SavedSignalHandler>>::_Vector_impl" }
%"struct.std::_Vector_base<arrow::(anonymous namespace)::SignalStopState::SavedSignalHandler, std::allocator<arrow::(anonymous namespace)::SignalStopState::SavedSignalHandler>>::_Vector_impl" = type { %"struct.std::_Vector_base<arrow::(anonymous namespace)::SignalStopState::SavedSignalHandler, std::allocator<arrow::(anonymous namespace)::SignalStopState::SavedSignalHandler>>::_Vector_impl_data" }
%"struct.std::_Vector_base<arrow::(anonymous namespace)::SignalStopState::SavedSignalHandler, std::allocator<arrow::(anonymous namespace)::SignalStopState::SavedSignalHandler>>::_Vector_impl_data" = type { ptr, ptr, ptr }
%"class.std::shared_ptr.2" = type { %"class.std::__shared_ptr.3" }
%"class.std::__shared_ptr.3" = type { ptr, %"class.std::__shared_count" }
%"class.std::unique_ptr" = type { %"struct.std::__uniq_ptr_data" }
%"struct.std::__uniq_ptr_data" = type { %"class.std::__uniq_ptr_impl" }
%"class.std::__uniq_ptr_impl" = type { %"class.std::tuple" }
%"class.std::tuple" = type { %"struct.std::_Tuple_impl" }
%"struct.std::_Tuple_impl" = type { %"struct.std::_Head_base.6" }
%"struct.std::_Head_base.6" = type { ptr }
%"class.std::shared_ptr.7" = type { %"class.std::__shared_ptr.8" }
%"class.std::__shared_ptr.8" = type { ptr, %"class.std::__shared_count" }
%"class.std::shared_ptr.10" = type { %"class.std::__shared_ptr.11" }
%"class.std::__shared_ptr.11" = type { ptr, %"class.std::__shared_count" }
%"struct.std::atomic.13" = type { %"struct.std::__atomic_base.14" }
%"struct.std::__atomic_base.14" = type { ptr }

@_ZZN5arrow12_GLOBAL__N_115SignalStopState8instanceEvE8instance = internal global %"class.std::shared_ptr.26" zeroinitializer, align 8
@_ZGVZN5arrow12_GLOBAL__N_115SignalStopState8instanceEvE8instance = internal global i64 0, align 8
@__dso_handle = external hidden global i8

; Function Attrs: inlinehint mustprogress nounwind uwtable
define internal noundef i32 @_ZL18__gthread_active_pv() #4 {
  ret i32 1
}

; Function Attrs: inlinehint mustprogress nounwind uwtable
define internal noundef i32 @_ZL22__gthread_mutex_unlockP15pthread_mutex_t(ptr noundef %0) #4 {
  %2 = alloca i32, align 4
  %3 = alloca ptr, align 8
  store ptr %0, ptr %3, align 8, !tbaa !82
  %4 = call noundef i32 @_ZL18__gthread_active_pv()
  %5 = icmp ne i32 %4, 0
  br i1 %5, label %6, label %9

6:                                                ; preds = %1
  %7 = load ptr, ptr %3, align 8, !tbaa !82
  %8 = call i32 @pthread_mutex_unlock(ptr noundef %7) #12
  store i32 %8, ptr %2, align 4
  br label %10

9:                                                ; preds = %1
  store i32 0, ptr %2, align 4
  br label %10

10:                                               ; preds = %9, %6
  %11 = load i32, ptr %2, align 4
  ret i32 %11
}

; Function Attrs: inlinehint mustprogress uwtable
define internal noundef i32 @_ZL20__gthread_mutex_lockP15pthread_mutex_t(ptr noundef %0) #1 {
  %2 = alloca i32, align 4
  %3 = alloca ptr, align 8
  store ptr %0, ptr %3, align 8, !tbaa !82
  %4 = call noundef i32 @_ZL18__gthread_active_pv()
  %5 = icmp ne i32 %4, 0
  br i1 %5, label %6, label %9

6:                                                ; preds = %1
  %7 = load ptr, ptr %3, align 8, !tbaa !82
  %8 = call i32 @pthread_mutex_lock(ptr noundef %7) #12
  store i32 %8, ptr %2, align 4
  br label %10

9:                                                ; preds = %1
  store i32 0, ptr %2, align 4
  br label %10

10:                                               ; preds = %9, %6
  %11 = load i32, ptr %2, align 4
  ret i32 %11
}

; Function Attrs: noinline noreturn nounwind uwtable
define linkonce_odr hidden void @__clang_call_terminate(ptr noundef %0) #7 comdat {
  %2 = call ptr @__cxa_begin_catch(ptr %0) #12
  call void @_ZSt9terminatev() #21
  unreachable
}

; Function Attrs: mustprogress uwtable
define linkonce_odr void @_ZNSt5mutex6unlockEv(ptr noundef nonnull align 8 dereferenceable(40) %0) #0 comdat align 2 {
  %2 = alloca ptr, align 8
  store ptr %0, ptr %2, align 8, !tbaa !40
  %3 = load ptr, ptr %2, align 8
  %4 = getelementptr inbounds nuw %"class.std::__mutex_base", ptr %3, i32 0, i32 0
  %5 = call noundef i32 @_ZL22__gthread_mutex_unlockP15pthread_mutex_t(ptr noundef %4)
  ret void
}

; Function Attrs: mustprogress nounwind uwtable
define linkonce_odr noundef zeroext i1 @_ZNKSt12__shared_ptrIN5arrow10StopSourceELN9__gnu_cxx12_Lock_policyE2EEcvbEv(ptr noundef nonnull align 8 dereferenceable(16) %0) #2 comdat align 2 {
  %2 = alloca ptr, align 8
  store ptr %0, ptr %2, align 8, !tbaa !306
  %3 = load ptr, ptr %2, align 8
  %4 = getelementptr inbounds nuw %"class.std::__shared_ptr.3", ptr %3, i32 0, i32 0
  %5 = load ptr, ptr %4, align 8, !tbaa !308
  %6 = icmp ne ptr %5, null
  ret i1 %6
}

; Function Attrs: mustprogress uwtable
define linkonce_odr void @_ZNSt5mutex4lockEv(ptr noundef nonnull align 8 dereferenceable(40) %0) #0 comdat align 2 {
  %2 = alloca ptr, align 8
  %3 = alloca i32, align 4
  store ptr %0, ptr %2, align 8, !tbaa !40
  %4 = load ptr, ptr %2, align 8
  call void @llvm.lifetime.start.p0(i64 4, ptr %3) #12
  %5 = getelementptr inbounds nuw %"class.std::__mutex_base", ptr %4, i32 0, i32 0
  %6 = call noundef i32 @_ZL20__gthread_mutex_lockP15pthread_mutex_t(ptr noundef %5)
  store i32 %6, ptr %3, align 4, !tbaa !46
  %7 = load i32, ptr %3, align 4, !tbaa !46
  %8 = icmp ne i32 %7, 0
  br i1 %8, label %9, label %11

9:                                                ; preds = %1
  %10 = load i32, ptr %3, align 4, !tbaa !46
  call void @_ZSt20__throw_system_errori(i32 noundef %10) #23
  unreachable

11:                                               ; preds = %1
  call void @llvm.lifetime.end.p0(i64 4, ptr %3) #12
  ret void
}

; Function Attrs: mustprogress nounwind uwtable
define linkonce_odr void @_ZNSt10lock_guardISt5mutexED2Ev(ptr noundef nonnull align 8 dereferenceable(8) %0) unnamed_addr #2 comdat align 2 personality ptr @__gxx_personality_v0 {
  %2 = alloca ptr, align 8
  store ptr %0, ptr %2, align 8, !tbaa !38
  %3 = load ptr, ptr %2, align 8
  %4 = getelementptr inbounds nuw %"class.std::lock_guard", ptr %3, i32 0, i32 0
  %5 = load ptr, ptr %4, align 8, !tbaa !42
  invoke void @_ZNSt5mutex6unlockEv(ptr noundef nonnull align 8 dereferenceable(40) %5)
          to label %6 unwind label %7

6:                                                ; preds = %1
  ret void

7:                                                ; preds = %1
  %8 = landingpad { ptr, i32 }
          catch ptr null
  %9 = extractvalue { ptr, i32 } %8, 0
  call void @__clang_call_terminate(ptr %9) #21
  unreachable
}

; Function Attrs: inlinehint mustprogress nounwind uwtable
define linkonce_odr noundef zeroext i1 @_ZStneIN5arrow10StopSourceEEbRKSt10shared_ptrIT_EDn(ptr noundef nonnull align 8 dereferenceable(16) %0, ptr %1) #4 comdat {
  %3 = alloca ptr, align 8
  %4 = alloca ptr, align 8
  store ptr %0, ptr %3, align 8, !tbaa !155
  store ptr %1, ptr %4, align 8, !tbaa !144
  %5 = load ptr, ptr %3, align 8, !tbaa !155
  %6 = call noundef zeroext i1 @_ZNKSt12__shared_ptrIN5arrow10StopSourceELN9__gnu_cxx12_Lock_policyE2EEcvbEv(ptr noundef nonnull align 8 dereferenceable(16) %5) #12
  ret i1 %6
}

; Function Attrs: mustprogress uwtable
define linkonce_odr void @_ZNSt10lock_guardISt5mutexEC2ERS0_(ptr noundef nonnull align 8 dereferenceable(8) %0, ptr noundef nonnull align 8 dereferenceable(40) %1) unnamed_addr #0 comdat align 2 {
  %3 = alloca ptr, align 8
  %4 = alloca ptr, align 8
  store ptr %0, ptr %3, align 8, !tbaa !38
  store ptr %1, ptr %4, align 8, !tbaa !40
  %5 = load ptr, ptr %3, align 8
  %6 = getelementptr inbounds nuw %"class.std::lock_guard", ptr %5, i32 0, i32 0
  %7 = load ptr, ptr %4, align 8, !tbaa !40
  store ptr %7, ptr %6, align 8, !tbaa !40
  %8 = getelementptr inbounds nuw %"class.std::lock_guard", ptr %5, i32 0, i32 0
  %9 = load ptr, ptr %8, align 8, !tbaa !42
  call void @_ZNSt5mutex4lockEv(ptr noundef nonnull align 8 dereferenceable(40) %9)
  ret void
}

; Function Attrs: mustprogress nounwind uwtable
define internal noundef ptr @_ZNKSt12__shared_ptrIN5arrow12_GLOBAL__N_115SignalStopStateELN9__gnu_cxx12_Lock_policyE2EE3getEv(ptr noundef nonnull align 8 dereferenceable(16) %0) #2 align 2 {
  %2 = alloca ptr, align 8
  store ptr %0, ptr %2, align 8, !tbaa !121
  %3 = load ptr, ptr %2, align 8
  %4 = getelementptr inbounds nuw %"class.std::__shared_ptr.27", ptr %3, i32 0, i32 0
  %5 = load ptr, ptr %4, align 8, !tbaa !123
  ret ptr %5
}

; Function Attrs: mustprogress uwtable
define internal noundef zeroext i1 @_ZN5arrow12_GLOBAL__N_115SignalStopState7enabledEv(ptr noundef nonnull align 8 dereferenceable(144) %0) #0 align 2 {
  %2 = alloca ptr, align 8
  %3 = alloca %"class.std::lock_guard", align 8
  store ptr %0, ptr %2, align 8, !tbaa !60
  %4 = load ptr, ptr %2, align 8
  call void @llvm.lifetime.start.p0(i64 8, ptr %3) #12
  %5 = getelementptr inbounds nuw %"struct.arrow::(anonymous namespace)::SignalStopState", ptr %4, i32 0, i32 1
  call void @_ZNSt10lock_guardISt5mutexEC2ERS0_(ptr noundef nonnull align 8 dereferenceable(8) %3, ptr noundef nonnull align 8 dereferenceable(40) %5)
  %6 = getelementptr inbounds nuw %"struct.arrow::(anonymous namespace)::SignalStopState", ptr %4, i32 0, i32 3
  %7 = call noundef zeroext i1 @_ZStneIN5arrow10StopSourceEEbRKSt10shared_ptrIT_EDn(ptr noundef nonnull align 8 dereferenceable(16) %6, ptr null) #12
  call void @_ZNSt10lock_guardISt5mutexED2Ev(ptr noundef nonnull align 8 dereferenceable(8) %3) #12
  call void @llvm.lifetime.end.p0(i64 8, ptr %3) #12
  ret i1 %7
}

; Function Attrs: mustprogress uwtable
define internal noundef ptr @_ZN5arrow12_GLOBAL__N_115SignalStopState8instanceEv() #0 align 2 personality ptr @__gxx_personality_v0 {
  %1 = alloca %class.anon, align 1
  %2 = alloca ptr, align 8
  %3 = alloca i32, align 4
  %4 = load atomic i8, ptr @_ZGVZN5arrow12_GLOBAL__N_115SignalStopState8instanceEvE8instance acquire, align 8
  %5 = icmp eq i8 %4, 0
  br i1 %5, label %6, label %12, !prof !62

6:                                                ; preds = %0
  %7 = call i32 @__cxa_guard_acquire(ptr @_ZGVZN5arrow12_GLOBAL__N_115SignalStopState8instanceEvE8instance) #12
  %8 = icmp ne i32 %7, 0
  br i1 %8, label %9, label %12

9:                                                ; preds = %6
  call void @llvm.lifetime.start.p0(i64 1, ptr %1) #12
  invoke void @_ZZN5arrow12_GLOBAL__N_115SignalStopState8instanceEvENKUlvE_clEv(ptr dead_on_unwind writable sret(%"class.std::shared_ptr.26") align 8 @_ZZN5arrow12_GLOBAL__N_115SignalStopState8instanceEvE8instance, ptr noundef nonnull align 1 dereferenceable(1) %1)
          to label %10 unwind label %14

10:                                               ; preds = %9
  call void @llvm.lifetime.end.p0(i64 1, ptr %1) #12
  %11 = call i32 @__cxa_atexit(ptr @_ZNSt12__shared_ptrIN5arrow12_GLOBAL__N_115SignalStopStateELN9__gnu_cxx12_Lock_policyE2EED2Ev, ptr @_ZZN5arrow12_GLOBAL__N_115SignalStopState8instanceEvE8instance, ptr @__dso_handle) #12
  call void @__cxa_guard_release(ptr @_ZGVZN5arrow12_GLOBAL__N_115SignalStopState8instanceEvE8instance) #12
  br label %12

12:                                               ; preds = %10, %6, %0
  %13 = call noundef ptr @_ZNKSt12__shared_ptrIN5arrow12_GLOBAL__N_115SignalStopStateELN9__gnu_cxx12_Lock_policyE2EE3getEv(ptr noundef nonnull align 8 dereferenceable(16) @_ZZN5arrow12_GLOBAL__N_115SignalStopState8instanceEvE8instance) #12
  ret ptr %13

14:                                               ; preds = %9
  %15 = landingpad { ptr, i32 }
          cleanup
  %16 = extractvalue { ptr, i32 } %15, 0
  store ptr %16, ptr %2, align 8
  %17 = extractvalue { ptr, i32 } %15, 1
  store i32 %17, ptr %3, align 4
  call void @llvm.lifetime.end.p0(i64 1, ptr %1) #12
  call void @__cxa_guard_abort(ptr @_ZGVZN5arrow12_GLOBAL__N_115SignalStopState8instanceEvE8instance) #12
  br label %18

18:                                               ; preds = %14
  %19 = load ptr, ptr %2, align 8
  %20 = load i32, ptr %3, align 4
  %21 = insertvalue { ptr, i32 } poison, ptr %19, 0
  %22 = insertvalue { ptr, i32 } %21, i32 %20, 1
  resume { ptr, i32 } %22
}

; Function Attrs: mustprogress uwtable
define void @_ZN5arrow33UnregisterCancellingSignalHandlerEv() #0 {
  %1 = alloca ptr, align 8
  call void @llvm.lifetime.start.p0(i64 8, ptr %1) #12
  %2 = call noundef ptr @_ZN5arrow12_GLOBAL__N_115SignalStopState8instanceEv()
  store ptr %2, ptr %1, align 8, !tbaa !60
  br label %3

3:                                                ; preds = %4, %0
  br i1 false, label %4, label %7

4:                                                ; preds = %3
  %5 = load ptr, ptr %1, align 8, !tbaa !60
  %6 = call noundef zeroext i1 @_ZN5arrow12_GLOBAL__N_115SignalStopState7enabledEv(ptr noundef nonnull align 8 dereferenceable(144) %5)
  br label %3, !llvm.loop !83

7:                                                ; preds = %3
  br label %8

8:                                                ; preds = %9, %7
  br i1 false, label %9, label %10

9:                                                ; preds = %8
  br label %8, !llvm.loop !84

10:                                               ; preds = %8
  %11 = load ptr, ptr %1, align 8, !tbaa !60
  call void @_ZN5arrow12_GLOBAL__N_115SignalStopState18UnregisterHandlersEv(ptr noundef nonnull align 8 dereferenceable(144) %11)
  call void @llvm.lifetime.end.p0(i64 8, ptr %1) #12
  ret void
}