; Function Attrs: mustprogress uwtable
define void @_ZN5arrow33UnregisterCancellingSignalHandlerEv() local_unnamed_addr #0 personality ptr @__gxx_personality_v0 {
  %1 = load atomic i8, ptr @_ZGVZN5arrow12_GLOBAL__N_115SignalStopState8instanceEvE8instance acquire, align 8
  %2 = icmp eq i8 %1, 0
  br i1 %2, label %3, label %_ZN5arrow12_GLOBAL__N_115SignalStopState8instanceEv.exit, !prof !51

3:                                                ; preds = %0
  %4 = tail call i32 @__cxa_guard_acquire(ptr nonnull @_ZGVZN5arrow12_GLOBAL__N_115SignalStopState8instanceEvE8instance) #27
  %.not.i = icmp eq i32 %4, 0
  br i1 %.not.i, label %_ZN5arrow12_GLOBAL__N_115SignalStopState8instanceEv.exit, label %5

5:                                                ; preds = %3
  invoke fastcc void @_ZZN5arrow12_GLOBAL__N_115SignalStopState8instanceEvENKUlvE_clEv()
          to label %6 unwind label %8

6:                                                ; preds = %5
  %7 = tail call i32 @__cxa_atexit(ptr nonnull @_ZNSt12__shared_ptrIN5arrow12_GLOBAL__N_115SignalStopStateELN9__gnu_cxx12_Lock_policyE2EED2Ev, ptr nonnull @_ZZN5arrow12_GLOBAL__N_115SignalStopState8instanceEvE8instance, ptr nonnull @__dso_handle) #27
  tail call void @__cxa_guard_release(ptr nonnull @_ZGVZN5arrow12_GLOBAL__N_115SignalStopState8instanceEvE8instance) #27
  br label %_ZN5arrow12_GLOBAL__N_115SignalStopState8instanceEv.exit

8:                                                ; preds = %5
  %9 = landingpad { ptr, i32 }
          cleanup
  tail call void @__cxa_guard_abort(ptr nonnull @_ZGVZN5arrow12_GLOBAL__N_115SignalStopState8instanceEvE8instance) #27
  resume { ptr, i32 } %9

_ZN5arrow12_GLOBAL__N_115SignalStopState8instanceEv.exit: ; preds = %0, %3, %6
  %_ZZN5arrow12_GLOBAL__N_115SignalStopState8instanceEvE8instance.val.i = load ptr, ptr @_ZZN5arrow12_GLOBAL__N_115SignalStopState8instanceEvE8instance, align 8, !tbaa !52
  tail call fastcc void @_ZN5arrow12_GLOBAL__N_115SignalStopState18UnregisterHandlersEv(ptr noundef nonnull align 8 dereferenceable(144) %_ZZN5arrow12_GLOBAL__N_115SignalStopState8instanceEvE8instance.val.i)
  ret void
}